target datalayout = "e-m:e-p270:32:32-p271:32:32-p272:64:64-i64:64-i128:128-f80:128-n8:16:32:64-S128"
target triple = "x86_64-unknown-linux-gnu"

%"struct.quic::QuicSocket::ByteEvent" = type { i64, i64, i32, %"class.std::chrono::duration" }
%"class.std::chrono::duration" = type { i64 }

; Function Attrs: mustprogress nounwind uwtable
define internal void @_ZN12_GLOBAL__N_120HQTransportByteEvent19onByteEventCanceledEN4quic10QuicSocket9ByteEventE(ptr noundef nonnull align 8 dereferenceable(80) %this, ptr noundef byval(%"struct.quic::QuicSocket::ByteEvent") align 8 %0) unnamed_addr #5 align 2 {
entry:
  %this.addr = alloca ptr, align 8
  store ptr %this, ptr %this.addr, align 8
  %this1 = load ptr, ptr %this.addr, align 8
  %isnull = icmp eq ptr %this1, null
  br i1 %isnull, label %delete.end, label %delete.notnull

delete.notnull:                                   ; preds = %entry
  %vtable = load ptr, ptr %this1, align 8
  %vfn = getelementptr inbounds ptr, ptr %vtable, i64 1
  %1 = load ptr, ptr %vfn, align 8
  call void %1(ptr noundef nonnull align 8 dereferenceable(80) %this1) #3
  br label %delete.end

delete.end:                                       ; preds = %delete.notnull, %entry
  ret void
}

; Function Attrs: uwtable
define internal void @_ZThn72_N12_GLOBAL__N_120HQTransportByteEvent19onByteEventCanceledEN4quic10QuicSocket9ByteEventE(ptr noundef %this, ptr noundef byval(%"struct.quic::QuicSocket::ByteEvent") align 8 %0) unnamed_addr #0 align 2 {
entry:
  %this.addr = alloca ptr, align 8
  store ptr %this, ptr %this.addr, align 8
  %this1 = load ptr, ptr %this.addr, align 8
  %1 = getelementptr inbounds i8, ptr %this1, i64 -72
  tail call void @_ZN12_GLOBAL__N_120HQTransportByteEvent19onByteEventCanceledEN4quic10QuicSocket9ByteEventE(ptr noundef nonnull align 8 dereferenceable(80) %1, ptr noundef byval(%"struct.quic::QuicSocket::ByteEvent") align 8 %0)
  ret void
}