; Function Attrs: uwtable
define internal void @_ZThn72_N12_GLOBAL__N_120HQTransportByteEvent19onByteEventCanceledEN4quic10QuicSocket9ByteEventE(ptr noundef %this, ptr nocapture noundef readonly byval(%"struct.quic::QuicSocket::ByteEvent") align 8 %0) unnamed_addr #11 align 2 {
entry:
  %1 = getelementptr inbounds i8, ptr %this, i64 -72
  %vtable.i = load ptr, ptr %1, align 8
  %vfn.i = getelementptr inbounds i8, ptr %vtable.i, i64 8
  %2 = load ptr, ptr %vfn.i, align 8
  tail call void %2(ptr noundef nonnull align 8 dereferenceable(80) %1) #17
  ret void
}